target datalayout = "e-m:e-p270:32:32-p271:32:32-p272:64:64-i64:64-i128:128-f80:128-n8:16:32:64-S128"
target triple = "x86_64-pc-linux-gnu"

; Function Attrs: nounwind uwtable
define dso_local i64 @header_size(i32 noundef %0) #0 {
  %2 = alloca i64, align 8
  %3 = alloca i32, align 4
  store i32 %0, ptr %3, align 4, !tbaa !4
  %4 = load i32, ptr %3, align 4, !tbaa !4
  switch i32 %4, label %7 [
    i32 1, label %5
    i32 2, label %6
  ]

5:                                                ; preds = %1
  store i64 24, ptr %2, align 8
  br label %8

6:                                                ; preds = %1
  store i64 28, ptr %2, align 8
  br label %8

7:                                                ; preds = %1
  call void @abort() #9
  unreachable

8:                                                ; preds = %6, %5
  %9 = load i64, ptr %2, align 8
  ret i64 %9
}